target datalayout = "e-m:e-p270:32:32-p271:32:32-p272:64:64-i64:64-i128:128-f80:128-n8:16:32:64-S128"
target triple = "x86_64-pc-linux-gnu"

%struct.nghttp2_frame_hd = type { i64, i32, i8, i8, i8 }
%struct.nghttp2_bufs = type { ptr, ptr, ptr, i64, i64, i64, i64, i64 }
%struct.nghttp2_buf_chain = type { ptr, %struct.nghttp2_buf }
%struct.nghttp2_buf = type { ptr, ptr, ptr, ptr, ptr }

; Function Attrs: nounwind uwtable
define hidden void @nghttp2_frame_pack_frame_hd(ptr noundef %0, ptr noundef %1) #0 {
  %3 = alloca ptr, align 8
  %4 = alloca ptr, align 8
  store ptr %0, ptr %3, align 8, !tbaa !3
  store ptr %1, ptr %4, align 8, !tbaa !8
  %5 = load ptr, ptr %3, align 8, !tbaa !3
  %6 = getelementptr inbounds i8, ptr %5, i64 0
  %7 = load ptr, ptr %4, align 8, !tbaa !8
  %8 = getelementptr inbounds nuw %struct.nghttp2_frame_hd, ptr %7, i32 0, i32 0
  %9 = load i64, ptr %8, align 8, !tbaa !9
  %10 = shl i64 %9, 8
  %11 = trunc i64 %10 to i32
  call void @nghttp2_put_uint32be(ptr noundef %6, i32 noundef %11)
  %12 = load ptr, ptr %4, align 8, !tbaa !8
  %13 = getelementptr inbounds nuw %struct.nghttp2_frame_hd, ptr %12, i32 0, i32 2
  %14 = load i8, ptr %13, align 4, !tbaa !13
  %15 = load ptr, ptr %3, align 8, !tbaa !3
  %16 = getelementptr inbounds i8, ptr %15, i64 3
  store i8 %14, ptr %16, align 1, !tbaa !14
  %17 = load ptr, ptr %4, align 8, !tbaa !8
  %18 = getelementptr inbounds nuw %struct.nghttp2_frame_hd, ptr %17, i32 0, i32 3
  %19 = load i8, ptr %18, align 1, !tbaa !15
  %20 = load ptr, ptr %3, align 8, !tbaa !3
  %21 = getelementptr inbounds i8, ptr %20, i64 4
  store i8 %19, ptr %21, align 1, !tbaa !14
  %22 = load ptr, ptr %3, align 8, !tbaa !3
  %23 = getelementptr inbounds i8, ptr %22, i64 5
  %24 = load ptr, ptr %4, align 8, !tbaa !8
  %25 = getelementptr inbounds nuw %struct.nghttp2_frame_hd, ptr %24, i32 0, i32 1
  %26 = load i32, ptr %25, align 8, !tbaa !16
  call void @nghttp2_put_uint32be(ptr noundef %23, i32 noundef %26)
  ret void
}

; Function Attrs: nounwind uwtable
define internal i32 @frame_pack_headers_shared(ptr noundef %0, ptr noundef %1) #0 {
  %3 = alloca ptr, align 8
  %4 = alloca ptr, align 8
  %5 = alloca ptr, align 8
  %6 = alloca ptr, align 8
  %7 = alloca ptr, align 8
  %8 = alloca %struct.nghttp2_frame_hd, align 8
  store ptr %0, ptr %3, align 8, !tbaa !8
  store ptr %1, ptr %4, align 8, !tbaa !8
  call void @llvm.lifetime.start.p0(i64 8, ptr %5) #7
  call void @llvm.lifetime.start.p0(i64 8, ptr %6) #7
  call void @llvm.lifetime.start.p0(i64 8, ptr %7) #7
  call void @llvm.lifetime.start.p0(i64 16, ptr %8) #7
  %9 = load ptr, ptr %3, align 8, !tbaa !8
  %10 = getelementptr inbounds nuw %struct.nghttp2_bufs, ptr %9, i32 0, i32 0
  %11 = load ptr, ptr %10, align 8, !tbaa !70
  %12 = getelementptr inbounds nuw %struct.nghttp2_buf_chain, ptr %11, i32 0, i32 1
  store ptr %12, ptr %5, align 8, !tbaa !8
  %13 = load ptr, ptr %4, align 8, !tbaa !8
  call void @llvm.memcpy.p0.p0.i64(ptr align 8 %8, ptr align 8 %13, i64 16, i1 false), !tbaa.struct !81
  %14 = load ptr, ptr %5, align 8, !tbaa !8
  %15 = getelementptr inbounds nuw %struct.nghttp2_buf, ptr %14, i32 0, i32 3
  %16 = load ptr, ptr %15, align 8, !tbaa !76
  %17 = load ptr, ptr %5, align 8, !tbaa !8
  %18 = getelementptr inbounds nuw %struct.nghttp2_buf, ptr %17, i32 0, i32 2
  %19 = load ptr, ptr %18, align 8, !tbaa !74
  %20 = ptrtoint ptr %16 to i64
  %21 = ptrtoint ptr %19 to i64
  %22 = sub i64 %20, %21
  %23 = getelementptr inbounds nuw %struct.nghttp2_frame_hd, ptr %8, i32 0, i32 0
  store i64 %22, ptr %23, align 8, !tbaa !9
  br label %24

24:                                               ; preds = %2
  br label %25

25:                                               ; preds = %24
  br label %26

26:                                               ; preds = %25
  %27 = load ptr, ptr %3, align 8, !tbaa !8
  %28 = getelementptr inbounds nuw %struct.nghttp2_bufs, ptr %27, i32 0, i32 0
  %29 = load ptr, ptr %28, align 8, !tbaa !70
  %30 = load ptr, ptr %3, align 8, !tbaa !8
  %31 = getelementptr inbounds nuw %struct.nghttp2_bufs, ptr %30, i32 0, i32 1
  %32 = load ptr, ptr %31, align 8, !tbaa !73
  %33 = icmp ne ptr %29, %32
  br i1 %33, label %34, label %41

34:                                               ; preds = %26
  %35 = getelementptr inbounds nuw %struct.nghttp2_frame_hd, ptr %8, i32 0, i32 3
  %36 = load i8, ptr %35, align 1, !tbaa !15
  %37 = zext i8 %36 to i32
  %38 = and i32 %37, -5
  %39 = trunc i32 %38 to i8
  %40 = getelementptr inbounds nuw %struct.nghttp2_frame_hd, ptr %8, i32 0, i32 3
  store i8 %39, ptr %40, align 1, !tbaa !15
  br label %41

41:                                               ; preds = %34, %26
  %42 = load ptr, ptr %5, align 8, !tbaa !8
  %43 = getelementptr inbounds nuw %struct.nghttp2_buf, ptr %42, i32 0, i32 2
  %44 = load ptr, ptr %43, align 8, !tbaa !74
  %45 = getelementptr inbounds i8, ptr %44, i64 -9
  store ptr %45, ptr %43, align 8, !tbaa !74
  %46 = load ptr, ptr %5, align 8, !tbaa !8
  %47 = getelementptr inbounds nuw %struct.nghttp2_buf, ptr %46, i32 0, i32 2
  %48 = load ptr, ptr %47, align 8, !tbaa !74
  call void @nghttp2_frame_pack_frame_hd(ptr noundef %48, ptr noundef %8)
  %49 = load ptr, ptr %3, align 8, !tbaa !8
  %50 = getelementptr inbounds nuw %struct.nghttp2_bufs, ptr %49, i32 0, i32 0
  %51 = load ptr, ptr %50, align 8, !tbaa !70
  %52 = load ptr, ptr %3, align 8, !tbaa !8
  %53 = getelementptr inbounds nuw %struct.nghttp2_bufs, ptr %52, i32 0, i32 1
  %54 = load ptr, ptr %53, align 8, !tbaa !73
  %55 = icmp ne ptr %51, %54
  br i1 %55, label %56, label %122

56:                                               ; preds = %41
  %57 = getelementptr inbounds nuw %struct.nghttp2_frame_hd, ptr %8, i32 0, i32 2
  store i8 9, ptr %57, align 4, !tbaa !13
  %58 = getelementptr inbounds nuw %struct.nghttp2_frame_hd, ptr %8, i32 0, i32 3
  store i8 0, ptr %58, align 1, !tbaa !15
  %59 = load ptr, ptr %3, align 8, !tbaa !8
  %60 = getelementptr inbounds nuw %struct.nghttp2_bufs, ptr %59, i32 0, i32 1
  %61 = load ptr, ptr %60, align 8, !tbaa !73
  store ptr %61, ptr %7, align 8, !tbaa !82
  %62 = load ptr, ptr %3, align 8, !tbaa !8
  %63 = getelementptr inbounds nuw %struct.nghttp2_bufs, ptr %62, i32 0, i32 0
  %64 = load ptr, ptr %63, align 8, !tbaa !70
  %65 = getelementptr inbounds nuw %struct.nghttp2_buf_chain, ptr %64, i32 0, i32 0
  %66 = load ptr, ptr %65, align 8, !tbaa !83
  store ptr %66, ptr %6, align 8, !tbaa !82
  br label %67

67:                                               ; preds = %94, %56
  %68 = load ptr, ptr %6, align 8, !tbaa !82
  %69 = load ptr, ptr %7, align 8, !tbaa !82
  %70 = icmp ne ptr %68, %69
  br i1 %70, label %71, label %98

71:                                               ; preds = %67
  %72 = load ptr, ptr %6, align 8, !tbaa !82
  %73 = getelementptr inbounds nuw %struct.nghttp2_buf_chain, ptr %72, i32 0, i32 1
  store ptr %73, ptr %5, align 8, !tbaa !8
  %74 = load ptr, ptr %5, align 8, !tbaa !8
  %75 = getelementptr inbounds nuw %struct.nghttp2_buf, ptr %74, i32 0, i32 3
  %76 = load ptr, ptr %75, align 8, !tbaa !76
  %77 = load ptr, ptr %5, align 8, !tbaa !8
  %78 = getelementptr inbounds nuw %struct.nghttp2_buf, ptr %77, i32 0, i32 2
  %79 = load ptr, ptr %78, align 8, !tbaa !74
  %80 = ptrtoint ptr %76 to i64
  %81 = ptrtoint ptr %79 to i64
  %82 = sub i64 %80, %81
  %83 = getelementptr inbounds nuw %struct.nghttp2_frame_hd, ptr %8, i32 0, i32 0
  store i64 %82, ptr %83, align 8, !tbaa !9
  br label %84

84:                                               ; preds = %71
  br label %85

85:                                               ; preds = %84
  br label %86

86:                                               ; preds = %85
  %87 = load ptr, ptr %5, align 8, !tbaa !8
  %88 = getelementptr inbounds nuw %struct.nghttp2_buf, ptr %87, i32 0, i32 2
  %89 = load ptr, ptr %88, align 8, !tbaa !74
  %90 = getelementptr inbounds i8, ptr %89, i64 -9
  store ptr %90, ptr %88, align 8, !tbaa !74
  %91 = load ptr, ptr %5, align 8, !tbaa !8
  %92 = getelementptr inbounds nuw %struct.nghttp2_buf, ptr %91, i32 0, i32 2
  %93 = load ptr, ptr %92, align 8, !tbaa !74
  call void @nghttp2_frame_pack_frame_hd(ptr noundef %93, ptr noundef %8)
  br label %94

94:                                               ; preds = %86
  %95 = load ptr, ptr %6, align 8, !tbaa !82
  %96 = getelementptr inbounds nuw %struct.nghttp2_buf_chain, ptr %95, i32 0, i32 0
  %97 = load ptr, ptr %96, align 8, !tbaa !83
  store ptr %97, ptr %6, align 8, !tbaa !82
  br label %67, !llvm.loop !85

98:                                               ; preds = %67
  %99 = load ptr, ptr %6, align 8, !tbaa !82
  %100 = getelementptr inbounds nuw %struct.nghttp2_buf_chain, ptr %99, i32 0, i32 1
  store ptr %100, ptr %5, align 8, !tbaa !8
  %101 = load ptr, ptr %5, align 8, !tbaa !8
  %102 = getelementptr inbounds nuw %struct.nghttp2_buf, ptr %101, i32 0, i32 3
  %103 = load ptr, ptr %102, align 8, !tbaa !76
  %104 = load ptr, ptr %5, align 8, !tbaa !8
  %105 = getelementptr inbounds nuw %struct.nghttp2_buf, ptr %104, i32 0, i32 2
  %106 = load ptr, ptr %105, align 8, !tbaa !74
  %107 = ptrtoint ptr %103 to i64
  %108 = ptrtoint ptr %106 to i64
  %109 = sub i64 %107, %108
  %110 = getelementptr inbounds nuw %struct.nghttp2_frame_hd, ptr %8, i32 0, i32 0
  store i64 %109, ptr %110, align 8, !tbaa !9
  %111 = getelementptr inbounds nuw %struct.nghttp2_frame_hd, ptr %8, i32 0, i32 3
  store i8 4, ptr %111, align 1, !tbaa !15
  br label %112

112:                                              ; preds = %98
  br label %113

113:                                              ; preds = %112
  br label %114

114:                                              ; preds = %113
  %115 = load ptr, ptr %5, align 8, !tbaa !8
  %116 = getelementptr inbounds nuw %struct.nghttp2_buf, ptr %115, i32 0, i32 2
  %117 = load ptr, ptr %116, align 8, !tbaa !74
  %118 = getelementptr inbounds i8, ptr %117, i64 -9
  store ptr %118, ptr %116, align 8, !tbaa !74
  %119 = load ptr, ptr %5, align 8, !tbaa !8
  %120 = getelementptr inbounds nuw %struct.nghttp2_buf, ptr %119, i32 0, i32 2
  %121 = load ptr, ptr %120, align 8, !tbaa !74
  call void @nghttp2_frame_pack_frame_hd(ptr noundef %121, ptr noundef %8)
  br label %122

122:                                              ; preds = %114, %41
  call void @llvm.lifetime.end.p0(i64 16, ptr %8) #7
  call void @llvm.lifetime.end.p0(i64 8, ptr %7) #7
  call void @llvm.lifetime.end.p0(i64 8, ptr %6) #7
  call void @llvm.lifetime.end.p0(i64 8, ptr %5) #7
  ret i32 0
}