; Function Attrs: nounwind uwtable
define internal fastcc void @frame_pack_headers_shared(ptr noundef readonly captures(none) %0, ptr noundef readonly captures(none) %1) unnamed_addr #0 {
  %3 = load ptr, ptr %0, align 8, !tbaa !65
  %.sroa.9.0..sroa_idx = getelementptr inbounds nuw i8, ptr %1, i64 8
  %.sroa.9.0.copyload = load i32, ptr %.sroa.9.0..sroa_idx, align 8, !tbaa !22
  %.sroa.12.0..sroa_idx = getelementptr inbounds nuw i8, ptr %1, i64 12
  %.sroa.12.0.copyload = load i8, ptr %.sroa.12.0..sroa_idx, align 4, !tbaa !10
  %.sroa.16.0..sroa_idx = getelementptr inbounds nuw i8, ptr %1, i64 13
  %.sroa.16.0.copyload = load i8, ptr %.sroa.16.0..sroa_idx, align 1, !tbaa !10
  %4 = getelementptr inbounds nuw i8, ptr %3, i64 32
  %5 = load ptr, ptr %4, align 8, !tbaa !71
  %6 = getelementptr inbounds nuw i8, ptr %3, i64 24
  %7 = load ptr, ptr %6, align 8, !tbaa !69
  %8 = ptrtoint ptr %5 to i64
  %9 = ptrtoint ptr %7 to i64
  %10 = sub i64 %8, %9
  %11 = getelementptr inbounds nuw i8, ptr %0, i64 8
  %12 = load ptr, ptr %11, align 8, !tbaa !68
  %.not = icmp eq ptr %3, %12
  %13 = and i8 %.sroa.16.0.copyload, -5
  %spec.select = select i1 %.not, i8 %.sroa.16.0.copyload, i8 %13
  %14 = getelementptr inbounds i8, ptr %7, i64 -9
  store ptr %14, ptr %6, align 8, !tbaa !69
  %.tr.i = trunc i64 %10 to i32
  %15 = shl i32 %.tr.i, 8
  tail call void @nghttp2_put_uint32be(ptr noundef nonnull %14, i32 noundef %15) #18
  %16 = getelementptr inbounds i8, ptr %7, i64 -6
  store i8 %.sroa.12.0.copyload, ptr %16, align 1, !tbaa !10
  %17 = getelementptr inbounds i8, ptr %7, i64 -5
  store i8 %spec.select, ptr %17, align 1, !tbaa !10
  %18 = getelementptr inbounds i8, ptr %7, i64 -4
  tail call void @nghttp2_put_uint32be(ptr noundef nonnull %18, i32 noundef %.sroa.9.0.copyload) #18
  %19 = load ptr, ptr %0, align 8, !tbaa !65
  %20 = load ptr, ptr %11, align 8, !tbaa !68
  %.not25 = icmp eq ptr %19, %20
  br i1 %.not25, label %45, label %.preheader

.preheader:                                       ; preds = %2
  %.038 = load ptr, ptr %19, align 8, !tbaa !76
  %.not2639 = icmp eq ptr %.038, %20
  br i1 %.not2639, label %._crit_edge, label %.lr.ph

.lr.ph:                                           ; preds = %.preheader, %.lr.ph
  %.040 = phi ptr [ %.0, %.lr.ph ], [ %.038, %.preheader ]
  %21 = getelementptr inbounds nuw i8, ptr %.040, i64 32
  %22 = load ptr, ptr %21, align 8, !tbaa !71
  %23 = getelementptr inbounds nuw i8, ptr %.040, i64 24
  %24 = load ptr, ptr %23, align 8, !tbaa !69
  %25 = ptrtoint ptr %22 to i64
  %26 = ptrtoint ptr %24 to i64
  %27 = sub i64 %25, %26
  %28 = getelementptr inbounds i8, ptr %24, i64 -9
  store ptr %28, ptr %23, align 8, !tbaa !69
  %.tr.i27 = trunc i64 %27 to i32
  %29 = shl i32 %.tr.i27, 8
  tail call void @nghttp2_put_uint32be(ptr noundef nonnull %28, i32 noundef %29) #18
  %30 = getelementptr inbounds i8, ptr %24, i64 -6
  store i8 9, ptr %30, align 1, !tbaa !10
  %31 = getelementptr inbounds i8, ptr %24, i64 -5
  store i8 0, ptr %31, align 1, !tbaa !10
  %32 = getelementptr inbounds i8, ptr %24, i64 -4
  tail call void @nghttp2_put_uint32be(ptr noundef nonnull %32, i32 noundef %.sroa.9.0.copyload) #18
  %.0 = load ptr, ptr %.040, align 8, !tbaa !76
  %.not26 = icmp eq ptr %.0, %20
  br i1 %.not26, label %._crit_edge, label %.lr.ph, !llvm.loop !78

._crit_edge:                                      ; preds = %.lr.ph, %.preheader
  %.0.lcssa = phi ptr [ %.038, %.preheader ], [ %.0, %.lr.ph ]
  %33 = getelementptr inbounds nuw i8, ptr %.0.lcssa, i64 32
  %34 = load ptr, ptr %33, align 8, !tbaa !71
  %35 = getelementptr inbounds nuw i8, ptr %.0.lcssa, i64 24
  %36 = load ptr, ptr %35, align 8, !tbaa !69
  %37 = ptrtoint ptr %34 to i64
  %38 = ptrtoint ptr %36 to i64
  %39 = sub i64 %37, %38
  %40 = getelementptr inbounds i8, ptr %36, i64 -9
  store ptr %40, ptr %35, align 8, !tbaa !69
  %.tr.i28 = trunc i64 %39 to i32
  %41 = shl i32 %.tr.i28, 8
  tail call void @nghttp2_put_uint32be(ptr noundef nonnull %40, i32 noundef %41) #18
  %42 = getelementptr inbounds i8, ptr %36, i64 -6
  store i8 9, ptr %42, align 1, !tbaa !10
  %43 = getelementptr inbounds i8, ptr %36, i64 -5
  store i8 4, ptr %43, align 1, !tbaa !10
  %44 = getelementptr inbounds i8, ptr %36, i64 -4
  tail call void @nghttp2_put_uint32be(ptr noundef nonnull %44, i32 noundef %.sroa.9.0.copyload) #18
  br label %45

45:                                               ; preds = %._crit_edge, %2
  ret void
}